; ModuleID = '46/3396.c'
source_filename = "46/3396.c"
target datalayout = "e-m:e-p270:32:32-p271:32:32-p272:64:64-i64:64-f80:128-n8:16:32:64-S128"
target triple = "x86_64-pc-linux-gnu"

@.str = private unnamed_addr constant [5 x i8] c"%d%d\00", align 1
@.str.1 = private unnamed_addr constant [3 x i8] c"%d\00", align 1
@.str.2 = private unnamed_addr constant [4 x i8] c"%d\0A\00", align 1

; Function Attrs: noinline nounwind uwtable
define dso_local i32 @main() #0 {
  %1 = alloca i32, align 4
  %2 = alloca [100 x [100 x i32]], align 16
  %3 = alloca i32, align 4
  %4 = alloca i32, align 4
  %5 = alloca i32, align 4
  %6 = alloca i32, align 4
  %7 = alloca i32, align 4
  %8 = alloca i32, align 4
  store i32 0, i32* %1, align 4
  store i32 0, i32* %5, align 4
  store i32 0, i32* %8, align 4
  %9 = call i32 (i8*, ...) @__isoc99_scanf(i8* getelementptr inbounds ([5 x i8], [5 x i8]* @.str, i64 0, i64 0), i32* %4, i32* %3)
  store i32 0, i32* %6, align 4
  br label %10

10:                                               ; preds = %31, %0
  %11 = load i32, i32* %6, align 4
  %12 = load i32, i32* %4, align 4
  %13 = icmp slt i32 %11, %12
  br i1 %13, label %14, label %34

14:                                               ; preds = %10
  store i32 0, i32* %7, align 4
  br label %15

15:                                               ; preds = %27, %14
  %16 = load i32, i32* %7, align 4
  %17 = load i32, i32* %3, align 4
  %18 = icmp slt i32 %16, %17
  br i1 %18, label %19, label %30

19:                                               ; preds = %15
  %20 = load i32, i32* %6, align 4
  %21 = sext i32 %20 to i64
  %22 = getelementptr inbounds [100 x [100 x i32]], [100 x [100 x i32]]* %2, i64 0, i64 %21
  %23 = load i32, i32* %7, align 4
  %24 = sext i32 %23 to i64
  %25 = getelementptr inbounds [100 x i32], [100 x i32]* %22, i64 0, i64 %24
  %26 = call i32 (i8*, ...) @__isoc99_scanf(i8* getelementptr inbounds ([3 x i8], [3 x i8]* @.str.1, i64 0, i64 0), i32* %25)
  br label %27

27:                                               ; preds = %19
  %28 = load i32, i32* %7, align 4
  %29 = add nsw i32 %28, 1
  store i32 %29, i32* %7, align 4
  br label %15

30:                                               ; preds = %15
  br label %31

31:                                               ; preds = %30
  %32 = load i32, i32* %6, align 4
  %33 = add nsw i32 %32, 1
  store i32 %33, i32* %6, align 4
  br label %10

34:                                               ; preds = %10
  br label %35

35:                                               ; preds = %191, %34
  %36 = load i32, i32* %5, align 4
  store i32 %36, i32* %6, align 4
  br label %37

37:                                               ; preds = %53, %35
  %38 = load i32, i32* %6, align 4
  %39 = load i32, i32* %5, align 4
  %40 = load i32, i32* %3, align 4
  %41 = add nsw i32 %39, %40
  %42 = sub nsw i32 %41, 1
  %43 = icmp slt i32 %38, %42
  br i1 %43, label %44, label %56

44:                                               ; preds = %37
  %45 = load i32, i32* %5, align 4
  %46 = sext i32 %45 to i64
  %47 = getelementptr inbounds [100 x [100 x i32]], [100 x [100 x i32]]* %2, i64 0, i64 %46
  %48 = load i32, i32* %6, align 4
  %49 = sext i32 %48 to i64
  %50 = getelementptr inbounds [100 x i32], [100 x i32]* %47, i64 0, i64 %49
  %51 = load i32, i32* %50, align 4
  %52 = call i32 (i8*, ...) @printf(i8* getelementptr inbounds ([4 x i8], [4 x i8]* @.str.2, i64 0, i64 0), i32 %51)
  br label %53

53:                                               ; preds = %44
  %54 = load i32, i32* %6, align 4
  %55 = add nsw i32 %54, 1
  store i32 %55, i32* %6, align 4
  br label %37

56:                                               ; preds = %37
  %57 = load i32, i32* %5, align 4
  store i32 %57, i32* %6, align 4
  br label %58

58:                                               ; preds = %77, %56
  %59 = load i32, i32* %6, align 4
  %60 = load i32, i32* %5, align 4
  %61 = load i32, i32* %4, align 4
  %62 = add nsw i32 %60, %61
  %63 = sub nsw i32 %62, 1
  %64 = icmp slt i32 %59, %63
  br i1 %64, label %65, label %80

65:                                               ; preds = %58
  %66 = load i32, i32* %6, align 4
  %67 = sext i32 %66 to i64
  %68 = getelementptr inbounds [100 x [100 x i32]], [100 x [100 x i32]]* %2, i64 0, i64 %67
  %69 = load i32, i32* %5, align 4
  %70 = load i32, i32* %3, align 4
  %71 = add nsw i32 %69, %70
  %72 = sub nsw i32 %71, 1
  %73 = sext i32 %72 to i64
  %74 = getelementptr inbounds [100 x i32], [100 x i32]* %68, i64 0, i64 %73
  %75 = load i32, i32* %74, align 4
  %76 = call i32 (i8*, ...) @printf(i8* getelementptr inbounds ([4 x i8], [4 x i8]* @.str.2, i64 0, i64 0), i32 %75)
  br label %77

77:                                               ; preds = %65
  %78 = load i32, i32* %6, align 4
  %79 = add nsw i32 %78, 1
  store i32 %79, i32* %6, align 4
  br label %58

80:                                               ; preds = %58
  %81 = load i32, i32* %6, align 4
  %82 = load i32, i32* %5, align 4
  %83 = icmp ne i32 %81, %82
  br i1 %83, label %84, label %115

84:                                               ; preds = %80
  %85 = load i32, i32* %5, align 4
  store i32 %85, i32* %6, align 4
  br label %86

86:                                               ; preds = %111, %84
  %87 = load i32, i32* %6, align 4
  %88 = load i32, i32* %5, align 4
  %89 = load i32, i32* %3, align 4
  %90 = add nsw i32 %88, %89
  %91 = sub nsw i32 %90, 1
  %92 = icmp slt i32 %87, %91
  br i1 %92, label %93, label %114

93:                                               ; preds = %86
  %94 = load i32, i32* %5, align 4
  %95 = load i32, i32* %4, align 4
  %96 = add nsw i32 %94, %95
  %97 = sub nsw i32 %96, 1
  %98 = sext i32 %97 to i64
  %99 = getelementptr inbounds [100 x [100 x i32]], [100 x [100 x i32]]* %2, i64 0, i64 %98
  %100 = load i32, i32* %5, align 4
  %101 = mul nsw i32 2, %100
  %102 = load i32, i32* %3, align 4
  %103 = add nsw i32 %101, %102
  %104 = load i32, i32* %6, align 4
  %105 = sub nsw i32 %103, %104
  %106 = sub nsw i32 %105, 1
  %107 = sext i32 %106 to i64
  %108 = getelementptr inbounds [100 x i32], [100 x i32]* %99, i64 0, i64 %107
  %109 = load i32, i32* %108, align 4
  %110 = call i32 (i8*, ...) @printf(i8* getelementptr inbounds ([4 x i8], [4 x i8]* @.str.2, i64 0, i64 0), i32 %109)
  br label %111

111:                                              ; preds = %93
  %112 = load i32, i32* %6, align 4
  %113 = add nsw i32 %112, 1
  store i32 %113, i32* %6, align 4
  br label %86

114:                                              ; preds = %86
  br label %130

115:                                              ; preds = %80
  %116 = load i32, i32* %5, align 4
  %117 = load i32, i32* %4, align 4
  %118 = add nsw i32 %116, %117
  %119 = sub nsw i32 %118, 1
  %120 = sext i32 %119 to i64
  %121 = getelementptr inbounds [100 x [100 x i32]], [100 x [100 x i32]]* %2, i64 0, i64 %120
  %122 = load i32, i32* %5, align 4
  %123 = load i32, i32* %3, align 4
  %124 = add nsw i32 %122, %123
  %125 = sub nsw i32 %124, 1
  %126 = sext i32 %125 to i64
  %127 = getelementptr inbounds [100 x i32], [100 x i32]* %121, i64 0, i64 %126
  %128 = load i32, i32* %127, align 4
  %129 = call i32 (i8*, ...) @printf(i8* getelementptr inbounds ([4 x i8], [4 x i8]* @.str.2, i64 0, i64 0), i32 %128)
  store i32 1, i32* %8, align 4
  br label %130

130:                                              ; preds = %115, %114
  %131 = load i32, i32* %6, align 4
  %132 = load i32, i32* %5, align 4
  %133 = icmp ne i32 %131, %132
  br i1 %133, label %134, label %162

134:                                              ; preds = %130
  %135 = load i32, i32* %5, align 4
  store i32 %135, i32* %6, align 4
  br label %136

136:                                              ; preds = %158, %134
  %137 = load i32, i32* %6, align 4
  %138 = load i32, i32* %5, align 4
  %139 = load i32, i32* %4, align 4
  %140 = add nsw i32 %138, %139
  %141 = sub nsw i32 %140, 1
  %142 = icmp slt i32 %137, %141
  br i1 %142, label %143, label %161

143:                                              ; preds = %136
  %144 = load i32, i32* %5, align 4
  %145 = mul nsw i32 2, %144
  %146 = load i32, i32* %4, align 4
  %147 = add nsw i32 %145, %146
  %148 = load i32, i32* %6, align 4
  %149 = sub nsw i32 %147, %148
  %150 = sub nsw i32 %149, 1
  %151 = sext i32 %150 to i64
  %152 = getelementptr inbounds [100 x [100 x i32]], [100 x [100 x i32]]* %2, i64 0, i64 %151
  %153 = load i32, i32* %5, align 4
  %154 = sext i32 %153 to i64
  %155 = getelementptr inbounds [100 x i32], [100 x i32]* %152, i64 0, i64 %154
  %156 = load i32, i32* %155, align 4
  %157 = call i32 (i8*, ...) @printf(i8* getelementptr inbounds ([4 x i8], [4 x i8]* @.str.2, i64 0, i64 0), i32 %156)
  br label %158

158:                                              ; preds = %143
  %159 = load i32, i32* %6, align 4
  %160 = add nsw i32 %159, 1
  store i32 %160, i32* %6, align 4
  br label %136

161:                                              ; preds = %136
  br label %178

162:                                              ; preds = %130
  %163 = load i32, i32* %8, align 4
  %164 = icmp eq i32 %163, 0
  br i1 %164, label %165, label %177

165:                                              ; preds = %162
  %166 = load i32, i32* %5, align 4
  %167 = load i32, i32* %4, align 4
  %168 = add nsw i32 %166, %167
  %169 = sub nsw i32 %168, 1
  %170 = sext i32 %169 to i64
  %171 = getelementptr inbounds [100 x [100 x i32]], [100 x [100 x i32]]* %2, i64 0, i64 %170
  %172 = load i32, i32* %5, align 4
  %173 = sext i32 %172 to i64
  %174 = getelementptr inbounds [100 x i32], [100 x i32]* %171, i64 0, i64 %173
  %175 = load i32, i32* %174, align 4
  %176 = call i32 (i8*, ...) @printf(i8* getelementptr inbounds ([4 x i8], [4 x i8]* @.str.2, i64 0, i64 0), i32 %175)
  br label %177

177:                                              ; preds = %165, %162
  br label %178

178:                                              ; preds = %177, %161
  %179 = load i32, i32* %5, align 4
  %180 = add nsw i32 %179, 1
  store i32 %180, i32* %5, align 4
  %181 = load i32, i32* %3, align 4
  %182 = sub nsw i32 %181, 2
  store i32 %182, i32* %3, align 4
  %183 = load i32, i32* %4, align 4
  %184 = sub nsw i32 %183, 2
  store i32 %184, i32* %4, align 4
  br label %185

185:                                              ; preds = %178
  %186 = load i32, i32* %3, align 4
  %187 = icmp sgt i32 %186, 0
  br i1 %187, label %188, label %191

188:                                              ; preds = %185
  %189 = load i32, i32* %4, align 4
  %190 = icmp sgt i32 %189, 0
  br label %191

191:                                              ; preds = %188, %185
  %192 = phi i1 [ false, %185 ], [ %190, %188 ]
  br i1 %192, label %35, label %193

193:                                              ; preds = %191
  ret i32 0
}

declare dso_local i32 @__isoc99_scanf(i8*, ...) #1

declare dso_local i32 @printf(i8*, ...) #1


!llvm.module.flags = !{!0}
!llvm.ident = !{!1}

!0 = !{i32 1, !"wchar_size", i32 4}
!1 = !{!"clang version 10.0.0-4ubuntu1 "}
